; Function Attrs: mustprogress nounwind uwtable
define internal void @_ZN12_GLOBAL__N_120PostRAMachineSinkingD2Ev(ptr noundef nonnull align 8 dereferenceable(240) %0) unnamed_addr #0 align 2 {
  store ptr getelementptr inbounds inrange(-16, 176) (i8, ptr @_ZTVN12_GLOBAL__N_120PostRAMachineSinkingE, i64 16), ptr %0, align 8
  %2 = getelementptr inbounds nuw i8, ptr %0, i64 216
  tail call void @_ZN4llvm8DenseMapIjNS_11SmallVectorISt4pairIPNS_12MachineInstrENS1_IjLj2EEEELj2EEENS_12DenseMapInfoIjvEENS_6detail12DenseMapPairIjS7_EEED2Ev(ptr noundef nonnull align 8 dereferenceable(20) %2) #19
  %3 = getelementptr inbounds i8, ptr %0, i64 144
  %4 = tail call noundef i64 @_ZNK4llvm15SmallVectorBaseIjE4sizeEv(ptr noundef nonnull align 8 dereferenceable(16) %3) #19
  %5 = load ptr, ptr %3, align 8
  %6 = getelementptr inbounds i8, ptr %0, i64 160
  %7 = icmp eq ptr %5, %6
  br i1 %7, label %_ZN4llvm12LiveRegUnitsD2Ev.exit, label %8

8:                                                ; preds = %1
  tail call void @free(ptr noundef %5) #19
  br label %_ZN4llvm12LiveRegUnitsD2Ev.exit

_ZN4llvm12LiveRegUnitsD2Ev.exit:                  ; preds = %1, %8
  %9 = getelementptr inbounds i8, ptr %0, i64 64
  %10 = tail call noundef i64 @_ZNK4llvm15SmallVectorBaseIjE4sizeEv(ptr noundef nonnull align 8 dereferenceable(16) %9) #19
  %11 = load ptr, ptr %9, align 8
  %12 = getelementptr inbounds i8, ptr %0, i64 80
  %13 = icmp eq ptr %11, %12
  br i1 %13, label %_ZN4llvm12LiveRegUnitsD2Ev.exit1, label %14

14:                                               ; preds = %_ZN4llvm12LiveRegUnitsD2Ev.exit
  tail call void @free(ptr noundef %11) #19
  br label %_ZN4llvm12LiveRegUnitsD2Ev.exit1

_ZN4llvm12LiveRegUnitsD2Ev.exit1:                 ; preds = %_ZN4llvm12LiveRegUnitsD2Ev.exit, %14
  tail call void @_ZN4llvm4PassD2Ev(ptr noundef nonnull align 8 dereferenceable(28) %0) #19
  ret void
}